target datalayout = "e-m:e-p270:32:32-p271:32:32-p272:64:64-i64:64-i128:128-f80:128-n8:16:32:64-S128"
target triple = "x86_64-pc-linux-gnu"

%"class.Json::Value" = type { %"union.Json::Value::ValueHolder", i16, ptr, i64 }
%"union.Json::Value::ValueHolder" = type { i64 }

; Function Attrs: mustprogress nounwind uwtable
define dso_local void @_ZN4Json5Value9initBasicENS_9ValueTypeEb(ptr noundef nonnull align 8 dereferenceable(32) %0, i32 noundef %1, i1 noundef zeroext %2) #0 align 2 {
  %4 = alloca ptr, align 8
  %5 = alloca i32, align 4
  %6 = alloca i8, align 1
  store ptr %0, ptr %4, align 8
  store i32 %1, ptr %5, align 4
  %7 = zext i1 %2 to i8
  store i8 %7, ptr %6, align 1
  %8 = load ptr, ptr %4, align 8
  %9 = load i32, ptr %5, align 4
  %10 = getelementptr inbounds %"class.Json::Value", ptr %8, i32 0, i32 1
  %11 = trunc i32 %9 to i16
  %12 = load i16, ptr %10, align 8
  %13 = and i16 %11, 255
  %14 = and i16 %12, -256
  %15 = or i16 %14, %13
  store i16 %15, ptr %10, align 8
  %16 = load i8, ptr %6, align 1
  %17 = trunc i8 %16 to i1
  %18 = zext i1 %17 to i32
  %19 = getelementptr inbounds %"class.Json::Value", ptr %8, i32 0, i32 1
  %20 = trunc i32 %18 to i16
  %21 = load i16, ptr %19, align 8
  %22 = and i16 %20, 1
  %23 = shl i16 %22, 8
  %24 = and i16 %21, -257
  %25 = or i16 %24, %23
  store i16 %25, ptr %19, align 8
  %26 = getelementptr inbounds %"class.Json::Value", ptr %8, i32 0, i32 2
  store ptr null, ptr %26, align 8
  %27 = getelementptr inbounds %"class.Json::Value", ptr %8, i32 0, i32 3
  store i64 0, ptr %27, align 8
  ret void
}

; Function Attrs: mustprogress uwtable
define dso_local void @_ZN4Json5ValueC2Ey(ptr noundef nonnull align 8 dereferenceable(32) %0, i64 noundef %1) unnamed_addr #1 align 2 {
  %3 = alloca ptr, align 8
  %4 = alloca i64, align 8
  store ptr %0, ptr %3, align 8
  store i64 %1, ptr %4, align 8
  %5 = load ptr, ptr %3, align 8
  call void @_ZN4Json5Value9initBasicENS_9ValueTypeEb(ptr noundef nonnull align 8 dereferenceable(32) %5, i32 noundef 2, i1 noundef zeroext false)
  %6 = load i64, ptr %4, align 8
  %7 = getelementptr inbounds %"class.Json::Value", ptr %5, i32 0, i32 0
  store i64 %6, ptr %7, align 8
  ret void
}